; Function Attrs: mustprogress uwtable
define internal void @_ZN9nix_storeL10opOptimiseENSt7__cxx114listINS0_12basic_stringIcSt11char_traitsIcESaIcEEESaIS6_EEES8_(ptr noundef readonly %0, ptr noundef readonly %1) #5 personality ptr @__gxx_personality_v0 {
  %3 = alloca %"class.std::__cxx11::basic_string", align 8
  %4 = alloca %"class.std::allocator", align 1
  %5 = load ptr, ptr %1, align 8
  %6 = icmp eq ptr %5, %1
  br i1 %6, label %7, label %10

7:                                                ; preds = %2
  %8 = load ptr, ptr %0, align 8
  %9 = icmp eq ptr %8, %0
  br i1 %9, label %18, label %10

10:                                               ; preds = %7, %2
  %11 = tail call ptr @__cxa_allocate_exception(i64 376) #26
  call void @_ZNSaIcEC1Ev(ptr noundef nonnull align 1 dereferenceable(1) %4) #26
  invoke void @_ZNSt7__cxx1112basic_stringIcSt11char_traitsIcESaIcEEC2IS3_EEPKcRKS3_(ptr noundef nonnull align 8 dereferenceable(32) %3, ptr noundef nonnull @.str.144, ptr noundef nonnull align 1 dereferenceable(1) %4)
          to label %12 unwind label %.thread

12:                                               ; preds = %10
  invoke void @_ZN3nix10UsageErrorCI2NS_9BaseErrorEIJEEERKNSt7__cxx1112basic_stringIcSt11char_traitsIcESaIcEEEDpRKT_(ptr noundef nonnull align 8 dereferenceable(376) %11, ptr noundef nonnull align 8 dereferenceable(32) %3)
          to label %13 unwind label %15

13:                                               ; preds = %12
  invoke void @__cxa_throw(ptr nonnull %11, ptr nonnull @_ZTIN3nix10UsageErrorE, ptr nonnull @_ZN3nix10UsageErrorD2Ev) #27
          to label %24 unwind label %15

.thread:                                          ; preds = %10
  %14 = landingpad { ptr, i32 }
          cleanup
  call void @_ZNSaIcED1Ev(ptr noundef nonnull align 1 dereferenceable(1) %4) #26
  br label %17

15:                                               ; preds = %12, %13
  %.0 = phi i1 [ false, %13 ], [ true, %12 ]
  %16 = landingpad { ptr, i32 }
          cleanup
  call void @_ZNSt7__cxx1112basic_stringIcSt11char_traitsIcESaIcEED2Ev(ptr noundef nonnull align 8 dereferenceable(32) %3) #26
  call void @_ZNSaIcED1Ev(ptr noundef nonnull align 1 dereferenceable(1) %4) #26
  br i1 %.0, label %17, label %23

17:                                               ; preds = %.thread, %15
  %.pn8 = phi { ptr, i32 } [ %14, %.thread ], [ %16, %15 ]
  call void @__cxa_free_exception(ptr %11) #26
  br label %23

18:                                               ; preds = %7
  %19 = load ptr, ptr @_ZN9nix_storeL5storeE, align 8
  %20 = load ptr, ptr %19, align 8
  %21 = getelementptr inbounds i8, ptr %20, i64 256
  %22 = load ptr, ptr %21, align 8
  tail call void %22(ptr noundef nonnull align 8 dereferenceable(264) %19)
  ret void

23:                                               ; preds = %15, %17
  %.pn7 = phi { ptr, i32 } [ %16, %15 ], [ %.pn8, %17 ]
  resume { ptr, i32 } %.pn7

24:                                               ; preds = %13
  unreachable
}